	.section	__TEXT,__text,regular,pure_instructions
	.macosx_version_min 10, 13
	.globl	__Z7tprintfPKc
	.p2align	4, 0x90
__Z7tprintfPKc:                         ## @_Z7tprintfPKc
	.cfi_startproc
## BB#0:
	pushq	%rbp
Lcfi0:
	.cfi_def_cfa_offset 16
Lcfi1:
	.cfi_offset %rbp, -16
	movq	%rsp, %rbp
Lcfi2:
	.cfi_def_cfa_register %rbp
	subq	$16, %rsp
	movq	__ZNSt3__14coutE@GOTPCREL(%rip), %rax
	movq	%rdi, -8(%rbp)
	movq	-8(%rbp), %rsi
	movq	%rax, %rdi
	callq	__ZNSt3__1lsINS_11char_traitsIcEEEERNS_13basic_ostreamIcT_EES6_PKc
	movq	%rax, -16(%rbp)         ## 8-byte Spill
	addq	$16, %rsp
	popq	%rbp
	retq
	.cfi_endproc

	.globl	__ZNSt3__1lsINS_11char_traitsIcEEEERNS_13basic_ostreamIcT_EES6_PKc
	.weak_definition	__ZNSt3__1lsINS_11char_traitsIcEEEERNS_13basic_ostreamIcT_EES6_PKc
	.p2align	4, 0x90
__ZNSt3__1lsINS_11char_traitsIcEEEERNS_13basic_ostreamIcT_EES6_PKc: ## @_ZNSt3__1lsINS_11char_traitsIcEEEERNS_13basic_ostreamIcT_EES6_PKc
	.cfi_startproc
## BB#0:
	pushq	%rbp
Lcfi3:
	.cfi_def_cfa_offset 16
Lcfi4:
	.cfi_offset %rbp, -16
	movq	%rsp, %rbp
Lcfi5:
	.cfi_def_cfa_register %rbp
	subq	$32, %rsp
	movq	%rdi, -8(%rbp)
	movq	%rsi, -16(%rbp)
	movq	-8(%rbp), %rdi
	movq	-16(%rbp), %rsi
	movq	-16(%rbp), %rax
	movq	%rdi, -24(%rbp)         ## 8-byte Spill
	movq	%rax, %rdi
	movq	%rsi, -32(%rbp)         ## 8-byte Spill
	callq	__ZNSt3__111char_traitsIcE6lengthEPKc
	movq	-24(%rbp), %rdi         ## 8-byte Reload
	movq	-32(%rbp), %rsi         ## 8-byte Reload
	movq	%rax, %rdx
	callq	__ZNSt3__124__put_character_sequenceIcNS_11char_traitsIcEEEERNS_13basic_ostreamIT_T0_EES7_PKS4_m
	addq	$32, %rsp
	popq	%rbp
	retq
	.cfi_endproc

	.globl	_main
	.p2align	4, 0x90
_main:                                  ## @main
	.cfi_startproc
## BB#0:
	pushq	%rbp
Lcfi6:
	.cfi_def_cfa_offset 16
Lcfi7:
	.cfi_offset %rbp, -16
	movq	%rsp, %rbp
Lcfi8:
	.cfi_def_cfa_register %rbp
	subq	$16, %rsp
	leaq	L_.str(%rip), %rdi
	leaq	L_.str.1(%rip), %rsi
	movl	$33, %edx
	movl	$123, %ecx
	movl	$0, -4(%rbp)
	callq	__Z7tprintfIPKcJciEEvS1_T_DpT0_
	xorl	%eax, %eax
	addq	$16, %rsp
	popq	%rbp
	retq
	.cfi_endproc

	.globl	__Z7tprintfIPKcJciEEvS1_T_DpT0_
	.weak_definition	__Z7tprintfIPKcJciEEvS1_T_DpT0_
	.p2align	4, 0x90
__Z7tprintfIPKcJciEEvS1_T_DpT0_:        ## @_Z7tprintfIPKcJciEEvS1_T_DpT0_
	.cfi_startproc
## BB#0:
	pushq	%rbp
Lcfi9:
	.cfi_def_cfa_offset 16
Lcfi10:
	.cfi_offset %rbp, -16
	movq	%rsp, %rbp
Lcfi11:
	.cfi_def_cfa_register %rbp
	subq	$48, %rsp
	movb	%dl, %al
	movq	%rdi, -8(%rbp)
	movq	%rsi, -16(%rbp)
	movb	%al, -17(%rbp)
	movl	%ecx, -24(%rbp)
LBB3_1:                                 ## =>This Inner Loop Header: Depth=1
	movq	-8(%rbp), %rax
	movsbl	(%rax), %ecx
	cmpl	$0, %ecx
	je	LBB3_6
## BB#2:                                ##   in Loop: Header=BB3_1 Depth=1
	movq	-8(%rbp), %rax
	movsbl	(%rax), %ecx
	cmpl	$37, %ecx
	jne	LBB3_4
## BB#3:
	movq	__ZNSt3__14coutE@GOTPCREL(%rip), %rdi
	movq	-16(%rbp), %rsi
	callq	__ZNSt3__1lsINS_11char_traitsIcEEEERNS_13basic_ostreamIcT_EES6_PKc
	movq	-8(%rbp), %rsi
	addq	$1, %rsi
	movb	-17(%rbp), %cl
	movl	-24(%rbp), %edx
	movq	%rsi, %rdi
	movsbl	%cl, %esi
	movq	%rax, -32(%rbp)         ## 8-byte Spill
	callq	__Z7tprintfIcJiEEvPKcT_DpT0_
	jmp	LBB3_6
LBB3_4:                                 ##   in Loop: Header=BB3_1 Depth=1
	movq	__ZNSt3__14coutE@GOTPCREL(%rip), %rdi
	movq	-8(%rbp), %rax
	movsbl	(%rax), %esi
	callq	__ZNSt3__1lsINS_11char_traitsIcEEEERNS_13basic_ostreamIcT_EES6_c
	movq	%rax, -40(%rbp)         ## 8-byte Spill
## BB#5:                                ##   in Loop: Header=BB3_1 Depth=1
	movq	-8(%rbp), %rax
	addq	$1, %rax
	movq	%rax, -8(%rbp)
	jmp	LBB3_1
LBB3_6:
	addq	$48, %rsp
	popq	%rbp
	retq
	.cfi_endproc

	.globl	__ZNSt3__124__put_character_sequenceIcNS_11char_traitsIcEEEERNS_13basic_ostreamIT_T0_EES7_PKS4_m
	.weak_definition	__ZNSt3__124__put_character_sequenceIcNS_11char_traitsIcEEEERNS_13basic_ostreamIT_T0_EES7_PKS4_m
	.p2align	4, 0x90
__ZNSt3__124__put_character_sequenceIcNS_11char_traitsIcEEEERNS_13basic_ostreamIT_T0_EES7_PKS4_m: ## @_ZNSt3__124__put_character_sequenceIcNS_11char_traitsIcEEEERNS_13basic_ostreamIT_T0_EES7_PKS4_m
Lfunc_begin0:
	.cfi_startproc
	.cfi_personality 155, ___gxx_personality_v0
	.cfi_lsda 16, Lexception0
## BB#0:
	pushq	%rbp
Lcfi12:
	.cfi_def_cfa_offset 16
Lcfi13:
	.cfi_offset %rbp, -16
	movq	%rsp, %rbp
Lcfi14:
	.cfi_def_cfa_register %rbp
	subq	$384, %rsp              ## imm = 0x180
	movq	%rdi, -184(%rbp)
	movq	%rsi, -192(%rbp)
	movq	%rdx, -200(%rbp)
	movq	-184(%rbp), %rsi
Ltmp0:
	leaq	-216(%rbp), %rdi
	callq	__ZNSt3__113basic_ostreamIcNS_11char_traitsIcEEE6sentryC1ERS3_
Ltmp1:
	jmp	LBB4_1
LBB4_1:
	leaq	-216(%rbp), %rax
	movq	%rax, -176(%rbp)
	movq	-176(%rbp), %rax
	movb	(%rax), %cl
	movb	%cl, -249(%rbp)         ## 1-byte Spill
## BB#2:
	movb	-249(%rbp), %al         ## 1-byte Reload
	testb	$1, %al
	jne	LBB4_3
	jmp	LBB4_26
LBB4_3:
	leaq	-248(%rbp), %rax
	movq	-184(%rbp), %rcx
	movq	%rax, -160(%rbp)
	movq	%rcx, -168(%rbp)
	movq	-160(%rbp), %rax
	movq	-168(%rbp), %rcx
	movq	%rax, -144(%rbp)
	movq	%rcx, -152(%rbp)
	movq	-144(%rbp), %rax
	movq	-152(%rbp), %rcx
	movq	(%rcx), %rdx
	movq	-24(%rdx), %rdx
	addq	%rdx, %rcx
	movq	%rcx, -136(%rbp)
	movq	-136(%rbp), %rcx
	movq	%rcx, -128(%rbp)
	movq	-128(%rbp), %rcx
	movq	40(%rcx), %rcx
	movq	%rcx, (%rax)
	movq	-192(%rbp), %rsi
	movq	-184(%rbp), %rax
	movq	(%rax), %rcx
	movq	-24(%rcx), %rcx
	addq	%rcx, %rax
	movq	%rax, -88(%rbp)
	movq	-88(%rbp), %rax
	movl	8(%rax), %edi
	movq	%rsi, -264(%rbp)        ## 8-byte Spill
	movl	%edi, -268(%rbp)        ## 4-byte Spill
## BB#4:
	movl	-268(%rbp), %eax        ## 4-byte Reload
	andl	$176, %eax
	cmpl	$32, %eax
	jne	LBB4_6
## BB#5:
	movq	-192(%rbp), %rax
	addq	-200(%rbp), %rax
	movq	%rax, -280(%rbp)        ## 8-byte Spill
	jmp	LBB4_7
LBB4_6:
	movq	-192(%rbp), %rax
	movq	%rax, -280(%rbp)        ## 8-byte Spill
LBB4_7:
	movq	-280(%rbp), %rax        ## 8-byte Reload
	movq	-192(%rbp), %rcx
	addq	-200(%rbp), %rcx
	movq	-184(%rbp), %rdx
	movq	(%rdx), %rsi
	movq	-24(%rsi), %rsi
	addq	%rsi, %rdx
	movq	-184(%rbp), %rsi
	movq	(%rsi), %rdi
	movq	-24(%rdi), %rdi
	addq	%rdi, %rsi
	movq	%rsi, -72(%rbp)
	movq	-72(%rbp), %rsi
	movq	%rax, -288(%rbp)        ## 8-byte Spill
	movq	%rcx, -296(%rbp)        ## 8-byte Spill
	movq	%rdx, -304(%rbp)        ## 8-byte Spill
	movq	%rsi, -312(%rbp)        ## 8-byte Spill
	callq	__ZNSt3__111char_traitsIcE3eofEv
	movq	-312(%rbp), %rcx        ## 8-byte Reload
	movl	144(%rcx), %esi
	movl	%eax, %edi
	callq	__ZNSt3__111char_traitsIcE11eq_int_typeEii
	testb	$1, %al
	jne	LBB4_8
	jmp	LBB4_13
LBB4_8:
	movq	-312(%rbp), %rax        ## 8-byte Reload
	movq	%rax, -32(%rbp)
	movb	$32, -33(%rbp)
	movq	-32(%rbp), %rsi
Ltmp3:
	leaq	-48(%rbp), %rdi
	callq	__ZNKSt3__18ios_base6getlocEv
Ltmp4:
	jmp	LBB4_9
LBB4_9:
	leaq	-48(%rbp), %rax
	movq	%rax, -24(%rbp)
	movq	-24(%rbp), %rdi
Ltmp5:
	movq	__ZNSt3__15ctypeIcE2idE@GOTPCREL(%rip), %rsi
	callq	__ZNKSt3__16locale9use_facetERNS0_2idE
Ltmp6:
	movq	%rax, -320(%rbp)        ## 8-byte Spill
	jmp	LBB4_10
LBB4_10:
	movb	-33(%rbp), %al
	movq	-320(%rbp), %rcx        ## 8-byte Reload
	movq	%rcx, -8(%rbp)
	movb	%al, -9(%rbp)
	movq	-8(%rbp), %rdx
	movq	(%rdx), %rsi
	movq	56(%rsi), %rsi
	movsbl	-9(%rbp), %edi
Ltmp7:
	movl	%edi, -324(%rbp)        ## 4-byte Spill
	movq	%rdx, %rdi
	movl	-324(%rbp), %r8d        ## 4-byte Reload
	movq	%rsi, -336(%rbp)        ## 8-byte Spill
	movl	%r8d, %esi
	movq	-336(%rbp), %rdx        ## 8-byte Reload
	callq	*%rdx
Ltmp8:
	movb	%al, -337(%rbp)         ## 1-byte Spill
	jmp	LBB4_12
LBB4_11:
Ltmp9:
	movl	%edx, %ecx
	movq	%rax, -56(%rbp)
	movl	%ecx, -60(%rbp)
	leaq	-48(%rbp), %rdi
	callq	__ZNSt3__16localeD1Ev
	movq	-56(%rbp), %rax
	movl	-60(%rbp), %ecx
	movq	%rax, -352(%rbp)        ## 8-byte Spill
	movl	%ecx, -356(%rbp)        ## 4-byte Spill
	jmp	LBB4_21
LBB4_12:
	leaq	-48(%rbp), %rdi
	callq	__ZNSt3__16localeD1Ev
	movb	-337(%rbp), %al         ## 1-byte Reload
	movsbl	%al, %ecx
	movq	-312(%rbp), %rdi        ## 8-byte Reload
	movl	%ecx, 144(%rdi)
LBB4_13:
	movq	-312(%rbp), %rax        ## 8-byte Reload
	movl	144(%rax), %ecx
	movb	%cl, %dl
	movb	%dl, -357(%rbp)         ## 1-byte Spill
## BB#14:
	movq	-248(%rbp), %rdi
Ltmp10:
	movb	-357(%rbp), %al         ## 1-byte Reload
	movsbl	%al, %r9d
	movq	-264(%rbp), %rsi        ## 8-byte Reload
	movq	-288(%rbp), %rdx        ## 8-byte Reload
	movq	-296(%rbp), %rcx        ## 8-byte Reload
	movq	-304(%rbp), %r8         ## 8-byte Reload
	callq	__ZNSt3__116__pad_and_outputIcNS_11char_traitsIcEEEENS_19ostreambuf_iteratorIT_T0_EES6_PKS4_S8_S8_RNS_8ios_baseES4_
Ltmp11:
	movq	%rax, -368(%rbp)        ## 8-byte Spill
	jmp	LBB4_15
LBB4_15:
	leaq	-240(%rbp), %rax
	movq	-368(%rbp), %rcx        ## 8-byte Reload
	movq	%rcx, -240(%rbp)
	movq	%rax, -80(%rbp)
	movq	-80(%rbp), %rax
	cmpq	$0, (%rax)
	jne	LBB4_25
## BB#16:
	movq	-184(%rbp), %rax
	movq	(%rax), %rcx
	movq	-24(%rcx), %rcx
	addq	%rcx, %rax
	movq	%rax, -112(%rbp)
	movl	$5, -116(%rbp)
	movq	-112(%rbp), %rax
	movl	-116(%rbp), %edx
	movq	%rax, -96(%rbp)
	movl	%edx, -100(%rbp)
	movq	-96(%rbp), %rax
	movl	32(%rax), %edx
	movl	-100(%rbp), %esi
	orl	%esi, %edx
Ltmp12:
	movq	%rax, %rdi
	movl	%edx, %esi
	callq	__ZNSt3__18ios_base5clearEj
Ltmp13:
	jmp	LBB4_17
LBB4_17:
	jmp	LBB4_18
LBB4_18:
	jmp	LBB4_25
LBB4_19:
Ltmp2:
	movl	%edx, %ecx
	movq	%rax, -224(%rbp)
	movl	%ecx, -228(%rbp)
	jmp	LBB4_22
LBB4_20:
Ltmp14:
	movl	%edx, %ecx
	movq	%rax, -352(%rbp)        ## 8-byte Spill
	movl	%ecx, -356(%rbp)        ## 4-byte Spill
	jmp	LBB4_21
LBB4_21:
	movl	-356(%rbp), %eax        ## 4-byte Reload
	movq	-352(%rbp), %rcx        ## 8-byte Reload
	leaq	-216(%rbp), %rdi
	movq	%rcx, -224(%rbp)
	movl	%eax, -228(%rbp)
	callq	__ZNSt3__113basic_ostreamIcNS_11char_traitsIcEEE6sentryD1Ev
LBB4_22:
	movq	-224(%rbp), %rdi
	callq	___cxa_begin_catch
	movq	-184(%rbp), %rdi
	movq	(%rdi), %rcx
	movq	-24(%rcx), %rcx
	addq	%rcx, %rdi
Ltmp15:
	movq	%rax, -376(%rbp)        ## 8-byte Spill
	callq	__ZNSt3__18ios_base33__set_badbit_and_consider_rethrowEv
Ltmp16:
	jmp	LBB4_23
LBB4_23:
	callq	___cxa_end_catch
LBB4_24:
	movq	-184(%rbp), %rax
	addq	$384, %rsp              ## imm = 0x180
	popq	%rbp
	retq
LBB4_25:
	jmp	LBB4_26
LBB4_26:
	leaq	-216(%rbp), %rdi
	callq	__ZNSt3__113basic_ostreamIcNS_11char_traitsIcEEE6sentryD1Ev
	jmp	LBB4_24
LBB4_27:
Ltmp17:
	movl	%edx, %ecx
	movq	%rax, -224(%rbp)
	movl	%ecx, -228(%rbp)
Ltmp18:
	callq	___cxa_end_catch
Ltmp19:
	jmp	LBB4_28
LBB4_28:
	jmp	LBB4_29
LBB4_29:
	movq	-224(%rbp), %rdi
	callq	__Unwind_Resume
LBB4_30:
Ltmp20:
	movl	%edx, %ecx
	movq	%rax, %rdi
	movl	%ecx, -380(%rbp)        ## 4-byte Spill
	callq	___clang_call_terminate
Lfunc_end0:
	.cfi_endproc
	.section	__TEXT,__gcc_except_tab
	.p2align	2
GCC_except_table4:
Lexception0:
	.byte	255                     ## @LPStart Encoding = omit
	.byte	155                     ## @TType Encoding = indirect pcrel sdata4
	.asciz	"\201\201\200\200"      ## @TType base offset
	.byte	3                       ## Call site Encoding = udata4
	.byte	117                     ## Call site table length
Lset0 = Ltmp0-Lfunc_begin0              ## >> Call Site 1 <<
	.long	Lset0
Lset1 = Ltmp1-Ltmp0                     ##   Call between Ltmp0 and Ltmp1
	.long	Lset1
Lset2 = Ltmp2-Lfunc_begin0              ##     jumps to Ltmp2
	.long	Lset2
	.byte	5                       ##   On action: 3
Lset3 = Ltmp3-Lfunc_begin0              ## >> Call Site 2 <<
	.long	Lset3
Lset4 = Ltmp4-Ltmp3                     ##   Call between Ltmp3 and Ltmp4
	.long	Lset4
Lset5 = Ltmp14-Lfunc_begin0             ##     jumps to Ltmp14
	.long	Lset5
	.byte	5                       ##   On action: 3
Lset6 = Ltmp5-Lfunc_begin0              ## >> Call Site 3 <<
	.long	Lset6
Lset7 = Ltmp8-Ltmp5                     ##   Call between Ltmp5 and Ltmp8
	.long	Lset7
Lset8 = Ltmp9-Lfunc_begin0              ##     jumps to Ltmp9
	.long	Lset8
	.byte	3                       ##   On action: 2
Lset9 = Ltmp10-Lfunc_begin0             ## >> Call Site 4 <<
	.long	Lset9
Lset10 = Ltmp13-Ltmp10                  ##   Call between Ltmp10 and Ltmp13
	.long	Lset10
Lset11 = Ltmp14-Lfunc_begin0            ##     jumps to Ltmp14
	.long	Lset11
	.byte	5                       ##   On action: 3
Lset12 = Ltmp13-Lfunc_begin0            ## >> Call Site 5 <<
	.long	Lset12
Lset13 = Ltmp15-Ltmp13                  ##   Call between Ltmp13 and Ltmp15
	.long	Lset13
	.long	0                       ##     has no landing pad
	.byte	0                       ##   On action: cleanup
Lset14 = Ltmp15-Lfunc_begin0            ## >> Call Site 6 <<
	.long	Lset14
Lset15 = Ltmp16-Ltmp15                  ##   Call between Ltmp15 and Ltmp16
	.long	Lset15
Lset16 = Ltmp17-Lfunc_begin0            ##     jumps to Ltmp17
	.long	Lset16
	.byte	0                       ##   On action: cleanup
Lset17 = Ltmp16-Lfunc_begin0            ## >> Call Site 7 <<
	.long	Lset17
Lset18 = Ltmp18-Ltmp16                  ##   Call between Ltmp16 and Ltmp18
	.long	Lset18
	.long	0                       ##     has no landing pad
	.byte	0                       ##   On action: cleanup
Lset19 = Ltmp18-Lfunc_begin0            ## >> Call Site 8 <<
	.long	Lset19
Lset20 = Ltmp19-Ltmp18                  ##   Call between Ltmp18 and Ltmp19
	.long	Lset20
Lset21 = Ltmp20-Lfunc_begin0            ##     jumps to Ltmp20
	.long	Lset21
	.byte	5                       ##   On action: 3
Lset22 = Ltmp19-Lfunc_begin0            ## >> Call Site 9 <<
	.long	Lset22
Lset23 = Lfunc_end0-Ltmp19              ##   Call between Ltmp19 and Lfunc_end0
	.long	Lset23
	.long	0                       ##     has no landing pad
	.byte	0                       ##   On action: cleanup
	.byte	0                       ## >> Action Record 1 <<
                                        ##   Cleanup
	.byte	0                       ##   No further actions
	.byte	1                       ## >> Action Record 2 <<
                                        ##   Catch TypeInfo 1
	.byte	125                     ##   Continue to action 1
	.byte	1                       ## >> Action Record 3 <<
                                        ##   Catch TypeInfo 1
	.byte	0                       ##   No further actions
                                        ## >> Catch TypeInfos <<
	.long	0                       ## TypeInfo 1
	.p2align	2

	.section	__TEXT,__text,regular,pure_instructions
	.globl	__ZNSt3__111char_traitsIcE6lengthEPKc
	.weak_definition	__ZNSt3__111char_traitsIcE6lengthEPKc
	.p2align	4, 0x90
__ZNSt3__111char_traitsIcE6lengthEPKc:  ## @_ZNSt3__111char_traitsIcE6lengthEPKc
	.cfi_startproc
## BB#0:
	pushq	%rbp
Lcfi15:
	.cfi_def_cfa_offset 16
Lcfi16:
	.cfi_offset %rbp, -16
	movq	%rsp, %rbp
Lcfi17:
	.cfi_def_cfa_register %rbp
	subq	$16, %rsp
	movq	%rdi, -8(%rbp)
	movq	-8(%rbp), %rdi
	callq	_strlen
	addq	$16, %rsp
	popq	%rbp
	retq
	.cfi_endproc

	.private_extern	__ZNSt3__116__pad_and_outputIcNS_11char_traitsIcEEEENS_19ostreambuf_iteratorIT_T0_EES6_PKS4_S8_S8_RNS_8ios_baseES4_
	.globl	__ZNSt3__116__pad_and_outputIcNS_11char_traitsIcEEEENS_19ostreambuf_iteratorIT_T0_EES6_PKS4_S8_S8_RNS_8ios_baseES4_
	.weak_definition	__ZNSt3__116__pad_and_outputIcNS_11char_traitsIcEEEENS_19ostreambuf_iteratorIT_T0_EES6_PKS4_S8_S8_RNS_8ios_baseES4_
	.p2align	4, 0x90
__ZNSt3__116__pad_and_outputIcNS_11char_traitsIcEEEENS_19ostreambuf_iteratorIT_T0_EES6_PKS4_S8_S8_RNS_8ios_baseES4_: ## @_ZNSt3__116__pad_and_outputIcNS_11char_traitsIcEEEENS_19ostreambuf_iteratorIT_T0_EES6_PKS4_S8_S8_RNS_8ios_baseES4_
Lfunc_begin1:
	.cfi_startproc
	.cfi_personality 155, ___gxx_personality_v0
	.cfi_lsda 16, Lexception1
## BB#0:
	pushq	%rbp
Lcfi18:
	.cfi_def_cfa_offset 16
Lcfi19:
	.cfi_offset %rbp, -16
	movq	%rsp, %rbp
Lcfi20:
	.cfi_def_cfa_register %rbp
	subq	$464, %rsp              ## imm = 0x1D0
	movb	%r9b, %al
	movq	%rdi, -312(%rbp)
	movq	%rsi, -320(%rbp)
	movq	%rdx, -328(%rbp)
	movq	%rcx, -336(%rbp)
	movq	%r8, -344(%rbp)
	movb	%al, -345(%rbp)
	cmpq	$0, -312(%rbp)
	jne	LBB6_2
## BB#1:
	movq	-312(%rbp), %rax
	movq	%rax, -304(%rbp)
	jmp	LBB6_26
LBB6_2:
	movq	-336(%rbp), %rax
	movq	-320(%rbp), %rcx
	subq	%rcx, %rax
	movq	%rax, -360(%rbp)
	movq	-344(%rbp), %rax
	movq	%rax, -296(%rbp)
	movq	-296(%rbp), %rax
	movq	24(%rax), %rax
	movq	%rax, -368(%rbp)
	movq	-368(%rbp), %rax
	cmpq	-360(%rbp), %rax
	jle	LBB6_4
## BB#3:
	movq	-360(%rbp), %rax
	movq	-368(%rbp), %rcx
	subq	%rax, %rcx
	movq	%rcx, -368(%rbp)
	jmp	LBB6_5
LBB6_4:
	movq	$0, -368(%rbp)
LBB6_5:
	movq	-328(%rbp), %rax
	movq	-320(%rbp), %rcx
	subq	%rcx, %rax
	movq	%rax, -376(%rbp)
	cmpq	$0, -376(%rbp)
	jle	LBB6_9
## BB#6:
	movq	-312(%rbp), %rax
	movq	-320(%rbp), %rcx
	movq	-376(%rbp), %rdx
	movq	%rax, -224(%rbp)
	movq	%rcx, -232(%rbp)
	movq	%rdx, -240(%rbp)
	movq	-224(%rbp), %rax
	movq	(%rax), %rcx
	movq	96(%rcx), %rcx
	movq	-232(%rbp), %rsi
	movq	-240(%rbp), %rdx
	movq	%rax, %rdi
	callq	*%rcx
	cmpq	-376(%rbp), %rax
	je	LBB6_8
## BB#7:
	movq	$0, -312(%rbp)
	movq	-312(%rbp), %rax
	movq	%rax, -304(%rbp)
	jmp	LBB6_26
LBB6_8:
	jmp	LBB6_9
LBB6_9:
	cmpq	$0, -368(%rbp)
	jle	LBB6_21
## BB#10:
	xorl	%esi, %esi
	movl	$24, %eax
	movl	%eax, %edx
	leaq	-400(%rbp), %rcx
	movq	-368(%rbp), %rdi
	movb	-345(%rbp), %r8b
	movq	%rcx, -200(%rbp)
	movq	%rdi, -208(%rbp)
	movb	%r8b, -209(%rbp)
	movq	-200(%rbp), %rcx
	movq	-208(%rbp), %rdi
	movb	-209(%rbp), %r8b
	movq	%rcx, -176(%rbp)
	movq	%rdi, -184(%rbp)
	movb	%r8b, -185(%rbp)
	movq	-176(%rbp), %rcx
	movq	%rcx, -168(%rbp)
	movq	-168(%rbp), %rdi
	movq	%rdi, -160(%rbp)
	movq	-160(%rbp), %rdi
	movq	%rdi, -152(%rbp)
	movq	-152(%rbp), %rdi
	movq	%rdi, %r9
	movq	%r9, -144(%rbp)
	movq	%rcx, -424(%rbp)        ## 8-byte Spill
	callq	_memset
	movq	-184(%rbp), %rsi
	movq	-424(%rbp), %rdi        ## 8-byte Reload
	movsbl	-185(%rbp), %edx
	callq	__ZNSt3__112basic_stringIcNS_11char_traitsIcEENS_9allocatorIcEEE6__initEmc
	leaq	-400(%rbp), %rcx
	movq	-312(%rbp), %rsi
	movq	%rcx, -136(%rbp)
	movq	-136(%rbp), %rcx
	movq	%rcx, -128(%rbp)
	movq	-128(%rbp), %rcx
	movq	%rcx, -120(%rbp)
	movq	-120(%rbp), %rdi
	movq	%rdi, -112(%rbp)
	movq	-112(%rbp), %rdi
	movq	%rdi, -104(%rbp)
	movq	-104(%rbp), %rdi
	movzbl	(%rdi), %eax
	andl	$1, %eax
	cmpl	$0, %eax
	movq	%rsi, -432(%rbp)        ## 8-byte Spill
	movq	%rcx, -440(%rbp)        ## 8-byte Spill
	je	LBB6_12
## BB#11:
	movq	-440(%rbp), %rax        ## 8-byte Reload
	movq	%rax, -56(%rbp)
	movq	-56(%rbp), %rcx
	movq	%rcx, -48(%rbp)
	movq	-48(%rbp), %rcx
	movq	%rcx, -40(%rbp)
	movq	-40(%rbp), %rcx
	movq	16(%rcx), %rcx
	movq	%rcx, -448(%rbp)        ## 8-byte Spill
	jmp	LBB6_13
LBB6_12:
	movq	-440(%rbp), %rax        ## 8-byte Reload
	movq	%rax, -96(%rbp)
	movq	-96(%rbp), %rcx
	movq	%rcx, -88(%rbp)
	movq	-88(%rbp), %rcx
	movq	%rcx, -80(%rbp)
	movq	-80(%rbp), %rcx
	addq	$1, %rcx
	movq	%rcx, -72(%rbp)
	movq	-72(%rbp), %rcx
	movq	%rcx, -64(%rbp)
	movq	-64(%rbp), %rcx
	movq	%rcx, -448(%rbp)        ## 8-byte Spill
LBB6_13:
	movq	-448(%rbp), %rax        ## 8-byte Reload
	movq	%rax, -32(%rbp)
	movq	-32(%rbp), %rax
	movq	-368(%rbp), %rcx
	movq	-432(%rbp), %rdx        ## 8-byte Reload
	movq	%rdx, -8(%rbp)
	movq	%rax, -16(%rbp)
	movq	%rcx, -24(%rbp)
	movq	-8(%rbp), %rax
	movq	(%rax), %rcx
	movq	96(%rcx), %rcx
	movq	-16(%rbp), %rsi
	movq	-24(%rbp), %rdx
Ltmp21:
	movq	%rax, %rdi
	callq	*%rcx
Ltmp22:
	movq	%rax, -456(%rbp)        ## 8-byte Spill
	jmp	LBB6_14
LBB6_14:
	jmp	LBB6_15
LBB6_15:
	movq	-456(%rbp), %rax        ## 8-byte Reload
	cmpq	-368(%rbp), %rax
	je	LBB6_18
## BB#16:
	movq	$0, -312(%rbp)
	movq	-312(%rbp), %rax
	movq	%rax, -304(%rbp)
	movl	$1, -416(%rbp)
	jmp	LBB6_19
LBB6_17:
Ltmp23:
	leaq	-400(%rbp), %rdi
	movl	%edx, %ecx
	movq	%rax, -408(%rbp)
	movl	%ecx, -412(%rbp)
	callq	__ZNSt3__112basic_stringIcNS_11char_traitsIcEENS_9allocatorIcEEED1Ev
	jmp	LBB6_27
LBB6_18:
	movl	$0, -416(%rbp)
LBB6_19:
	leaq	-400(%rbp), %rdi
	callq	__ZNSt3__112basic_stringIcNS_11char_traitsIcEENS_9allocatorIcEEED1Ev
	movl	-416(%rbp), %eax
	testl	%eax, %eax
	movl	%eax, -460(%rbp)        ## 4-byte Spill
	je	LBB6_20
	jmp	LBB6_29
LBB6_29:
	movl	-460(%rbp), %eax        ## 4-byte Reload
	subl	$1, %eax
	movl	%eax, -464(%rbp)        ## 4-byte Spill
	je	LBB6_26
	jmp	LBB6_28
LBB6_20:
	jmp	LBB6_21
LBB6_21:
	movq	-336(%rbp), %rax
	movq	-328(%rbp), %rcx
	subq	%rcx, %rax
	movq	%rax, -376(%rbp)
	cmpq	$0, -376(%rbp)
	jle	LBB6_25
## BB#22:
	movq	-312(%rbp), %rax
	movq	-328(%rbp), %rcx
	movq	-376(%rbp), %rdx
	movq	%rax, -248(%rbp)
	movq	%rcx, -256(%rbp)
	movq	%rdx, -264(%rbp)
	movq	-248(%rbp), %rax
	movq	(%rax), %rcx
	movq	96(%rcx), %rcx
	movq	-256(%rbp), %rsi
	movq	-264(%rbp), %rdx
	movq	%rax, %rdi
	callq	*%rcx
	cmpq	-376(%rbp), %rax
	je	LBB6_24
## BB#23:
	movq	$0, -312(%rbp)
	movq	-312(%rbp), %rax
	movq	%rax, -304(%rbp)
	jmp	LBB6_26
LBB6_24:
	jmp	LBB6_25
LBB6_25:
	movq	-344(%rbp), %rax
	movq	%rax, -272(%rbp)
	movq	$0, -280(%rbp)
	movq	-272(%rbp), %rax
	movq	24(%rax), %rcx
	movq	%rcx, -288(%rbp)
	movq	-280(%rbp), %rcx
	movq	%rcx, 24(%rax)
	movq	-312(%rbp), %rax
	movq	%rax, -304(%rbp)
LBB6_26:
	movq	-304(%rbp), %rax
	addq	$464, %rsp              ## imm = 0x1D0
	popq	%rbp
	retq
LBB6_27:
	movq	-408(%rbp), %rdi
	callq	__Unwind_Resume
LBB6_28:
Lfunc_end1:
	.cfi_endproc
	.section	__TEXT,__gcc_except_tab
	.p2align	2
GCC_except_table6:
Lexception1:
	.byte	255                     ## @LPStart Encoding = omit
	.byte	155                     ## @TType Encoding = indirect pcrel sdata4
	.byte	41                      ## @TType base offset
	.byte	3                       ## Call site Encoding = udata4
	.byte	39                      ## Call site table length
Lset24 = Lfunc_begin1-Lfunc_begin1      ## >> Call Site 1 <<
	.long	Lset24
Lset25 = Ltmp21-Lfunc_begin1            ##   Call between Lfunc_begin1 and Ltmp21
	.long	Lset25
	.long	0                       ##     has no landing pad
	.byte	0                       ##   On action: cleanup
Lset26 = Ltmp21-Lfunc_begin1            ## >> Call Site 2 <<
	.long	Lset26
Lset27 = Ltmp22-Ltmp21                  ##   Call between Ltmp21 and Ltmp22
	.long	Lset27
Lset28 = Ltmp23-Lfunc_begin1            ##     jumps to Ltmp23
	.long	Lset28
	.byte	0                       ##   On action: cleanup
Lset29 = Ltmp22-Lfunc_begin1            ## >> Call Site 3 <<
	.long	Lset29
Lset30 = Lfunc_end1-Ltmp22              ##   Call between Ltmp22 and Lfunc_end1
	.long	Lset30
	.long	0                       ##     has no landing pad
	.byte	0                       ##   On action: cleanup
	.p2align	2

	.section	__TEXT,__text,regular,pure_instructions
	.private_extern	___clang_call_terminate
	.globl	___clang_call_terminate
	.weak_definition	___clang_call_terminate
	.p2align	4, 0x90
___clang_call_terminate:                ## @__clang_call_terminate
## BB#0:
	pushq	%rax
	callq	___cxa_begin_catch
	movq	%rax, (%rsp)            ## 8-byte Spill
	callq	__ZSt9terminatev

	.globl	__ZNSt3__111char_traitsIcE11eq_int_typeEii
	.weak_definition	__ZNSt3__111char_traitsIcE11eq_int_typeEii
	.p2align	4, 0x90
__ZNSt3__111char_traitsIcE11eq_int_typeEii: ## @_ZNSt3__111char_traitsIcE11eq_int_typeEii
	.cfi_startproc
## BB#0:
	pushq	%rbp
Lcfi21:
	.cfi_def_cfa_offset 16
Lcfi22:
	.cfi_offset %rbp, -16
	movq	%rsp, %rbp
Lcfi23:
	.cfi_def_cfa_register %rbp
	movl	%edi, -4(%rbp)
	movl	%esi, -8(%rbp)
	movl	-4(%rbp), %esi
	cmpl	-8(%rbp), %esi
	sete	%al
	andb	$1, %al
	movzbl	%al, %eax
	popq	%rbp
	retq
	.cfi_endproc

	.globl	__ZNSt3__111char_traitsIcE3eofEv
	.weak_definition	__ZNSt3__111char_traitsIcE3eofEv
	.p2align	4, 0x90
__ZNSt3__111char_traitsIcE3eofEv:       ## @_ZNSt3__111char_traitsIcE3eofEv
	.cfi_startproc
## BB#0:
	pushq	%rbp
Lcfi24:
	.cfi_def_cfa_offset 16
Lcfi25:
	.cfi_offset %rbp, -16
	movq	%rsp, %rbp
Lcfi26:
	.cfi_def_cfa_register %rbp
	movl	$4294967295, %eax       ## imm = 0xFFFFFFFF
	popq	%rbp
	retq
	.cfi_endproc

	.globl	__Z7tprintfIcJiEEvPKcT_DpT0_
	.weak_definition	__Z7tprintfIcJiEEvPKcT_DpT0_
	.p2align	4, 0x90
__Z7tprintfIcJiEEvPKcT_DpT0_:           ## @_Z7tprintfIcJiEEvPKcT_DpT0_
	.cfi_startproc
## BB#0:
	pushq	%rbp
Lcfi27:
	.cfi_def_cfa_offset 16
Lcfi28:
	.cfi_offset %rbp, -16
	movq	%rsp, %rbp
Lcfi29:
	.cfi_def_cfa_register %rbp
	subq	$32, %rsp
	movb	%sil, %al
	movq	%rdi, -8(%rbp)
	movb	%al, -9(%rbp)
	movl	%edx, -16(%rbp)
LBB10_1:                                ## =>This Inner Loop Header: Depth=1
	movq	-8(%rbp), %rax
	movsbl	(%rax), %ecx
	cmpl	$0, %ecx
	je	LBB10_6
## BB#2:                                ##   in Loop: Header=BB10_1 Depth=1
	movq	-8(%rbp), %rax
	movsbl	(%rax), %ecx
	cmpl	$37, %ecx
	jne	LBB10_4
## BB#3:
	movq	__ZNSt3__14coutE@GOTPCREL(%rip), %rdi
	movsbl	-9(%rbp), %esi
	callq	__ZNSt3__1lsINS_11char_traitsIcEEEERNS_13basic_ostreamIcT_EES6_c
	movq	-8(%rbp), %rdi
	addq	$1, %rdi
	movl	-16(%rbp), %esi
	movq	%rax, -24(%rbp)         ## 8-byte Spill
	callq	__Z7tprintfIiJEEvPKcT_DpT0_
	jmp	LBB10_6
LBB10_4:                                ##   in Loop: Header=BB10_1 Depth=1
	movq	__ZNSt3__14coutE@GOTPCREL(%rip), %rdi
	movq	-8(%rbp), %rax
	movsbl	(%rax), %esi
	callq	__ZNSt3__1lsINS_11char_traitsIcEEEERNS_13basic_ostreamIcT_EES6_c
	movq	%rax, -32(%rbp)         ## 8-byte Spill
## BB#5:                                ##   in Loop: Header=BB10_1 Depth=1
	movq	-8(%rbp), %rax
	addq	$1, %rax
	movq	%rax, -8(%rbp)
	jmp	LBB10_1
LBB10_6:
	addq	$32, %rsp
	popq	%rbp
	retq
	.cfi_endproc

	.globl	__ZNSt3__1lsINS_11char_traitsIcEEEERNS_13basic_ostreamIcT_EES6_c
	.weak_definition	__ZNSt3__1lsINS_11char_traitsIcEEEERNS_13basic_ostreamIcT_EES6_c
	.p2align	4, 0x90
__ZNSt3__1lsINS_11char_traitsIcEEEERNS_13basic_ostreamIcT_EES6_c: ## @_ZNSt3__1lsINS_11char_traitsIcEEEERNS_13basic_ostreamIcT_EES6_c
	.cfi_startproc
## BB#0:
	pushq	%rbp
Lcfi30:
	.cfi_def_cfa_offset 16
Lcfi31:
	.cfi_offset %rbp, -16
	movq	%rsp, %rbp
Lcfi32:
	.cfi_def_cfa_register %rbp
	subq	$16, %rsp
	movb	%sil, %al
	leaq	-9(%rbp), %rsi
	movl	$1, %ecx
	movl	%ecx, %edx
	movq	%rdi, -8(%rbp)
	movb	%al, -9(%rbp)
	movq	-8(%rbp), %rdi
	callq	__ZNSt3__124__put_character_sequenceIcNS_11char_traitsIcEEEERNS_13basic_ostreamIT_T0_EES7_PKS4_m
	addq	$16, %rsp
	popq	%rbp
	retq
	.cfi_endproc

	.globl	__Z7tprintfIiJEEvPKcT_DpT0_
	.weak_definition	__Z7tprintfIiJEEvPKcT_DpT0_
	.p2align	4, 0x90
__Z7tprintfIiJEEvPKcT_DpT0_:            ## @_Z7tprintfIiJEEvPKcT_DpT0_
	.cfi_startproc
## BB#0:
	pushq	%rbp
Lcfi33:
	.cfi_def_cfa_offset 16
Lcfi34:
	.cfi_offset %rbp, -16
	movq	%rsp, %rbp
Lcfi35:
	.cfi_def_cfa_register %rbp
	subq	$32, %rsp
	movq	%rdi, -8(%rbp)
	movl	%esi, -12(%rbp)
LBB12_1:                                ## =>This Inner Loop Header: Depth=1
	movq	-8(%rbp), %rax
	movsbl	(%rax), %ecx
	cmpl	$0, %ecx
	je	LBB12_6
## BB#2:                                ##   in Loop: Header=BB12_1 Depth=1
	movq	-8(%rbp), %rax
	movsbl	(%rax), %ecx
	cmpl	$37, %ecx
	jne	LBB12_4
## BB#3:
	movq	__ZNSt3__14coutE@GOTPCREL(%rip), %rdi
	movl	-12(%rbp), %esi
	callq	__ZNSt3__113basic_ostreamIcNS_11char_traitsIcEEElsEi
	movq	-8(%rbp), %rdi
	addq	$1, %rdi
	movq	%rax, -24(%rbp)         ## 8-byte Spill
	callq	__Z7tprintfPKc
	jmp	LBB12_6
LBB12_4:                                ##   in Loop: Header=BB12_1 Depth=1
	movq	__ZNSt3__14coutE@GOTPCREL(%rip), %rdi
	movq	-8(%rbp), %rax
	movsbl	(%rax), %esi
	callq	__ZNSt3__1lsINS_11char_traitsIcEEEERNS_13basic_ostreamIcT_EES6_c
	movq	%rax, -32(%rbp)         ## 8-byte Spill
## BB#5:                                ##   in Loop: Header=BB12_1 Depth=1
	movq	-8(%rbp), %rax
	addq	$1, %rax
	movq	%rax, -8(%rbp)
	jmp	LBB12_1
LBB12_6:
	addq	$32, %rsp
	popq	%rbp
	retq
	.cfi_endproc

	.section	__TEXT,__cstring,cstring_literals
L_.str:                                 ## @.str
	.asciz	"% world% %\n"

L_.str.1:                               ## @.str.1
	.asciz	"Hello"


.subsections_via_symbols
